target datalayout = "e-m:e-p270:32:32-p271:32:32-p272:64:64-i64:64-i128:128-f80:128-n8:16:32:64-S128"
target triple = "x86_64-pc-linux-gnu"

%struct.darktable_t = type { %struct.dt_codepath_t, i32, i32, ptr, ptr, ptr, ptr, ptr, ptr, ptr, ptr, ptr, ptr, ptr, ptr, ptr, ptr, ptr, ptr, ptr, ptr, ptr, ptr, ptr, ptr, ptr, ptr, ptr, ptr, ptr, [64 x %struct.dt_pthread_mutex_t], %struct.dt_pthread_mutex_t, %struct.dt_pthread_mutex_t, %struct.dt_pthread_mutex_t, %struct.dt_pthread_mutex_t, %struct.dt_pthread_mutex_t, ptr, ptr, ptr, ptr, ptr, ptr, ptr, ptr, ptr, ptr, ptr, ptr, ptr, %struct.dt_lua_state_t, ptr, double, ptr, i32, [47 x i32], i32, i32, ptr, ptr, %struct.dt_sys_resources_t, %struct.dt_backthumb_t, %struct.dt_gimp_t }
%struct.dt_codepath_t = type { i8, [3 x i8] }
%struct.dt_pthread_mutex_t = type { %union.pthread_mutex_t }
%union.pthread_mutex_t = type { %struct.__pthread_mutex_s }
%struct.__pthread_mutex_s = type { i32, i32, i32, i32, i32, i16, i16, %struct.__pthread_internal_list }
%struct.__pthread_internal_list = type { ptr, ptr }
%struct.dt_lua_state_t = type { i32 }
%struct.dt_sys_resources_t = type { i64, i64, ptr, ptr, i32 }
%struct.dt_backthumb_t = type { double, double, i32, i32, i32, i32 }
%struct.dt_gimp_t = type { i32, ptr, ptr, i32, i32 }
%struct.dt_film_t = type { i32, [512 x i8], %struct.dt_pthread_mutex_t, ptr, i32, i32, i32 }
%struct._GError = type { i32, i32, ptr }

@darktable = external global %struct.darktable_t, align 8
@.str.3 = private unnamed_addr constant [115 x i8] c"generated/home/dtcxzyw/WorkSpace/Projects/compilers/llvm-opt-benchmark/bench/darktable/darktable/src/common/film.c\00", align 1
@stderr = external global ptr, align 8
@.str.5 = private unnamed_addr constant [53 x i8] c"sqlite3 error: %s:%d, function %s(), query \22%s\22: %s\0A\00", align 1
@.str.13 = private unnamed_addr constant [46 x i8] c"[film_import] failed to open directory %s: %s\00", align 1
@.str.14 = private unnamed_addr constant [38 x i8] c"[sql] %s:%d, function %s(): exec \22%s\22\00", align 1
@__FUNCTION__.dt_film_import = private unnamed_addr constant [15 x i8] c"dt_film_import\00", align 1
@.str.15 = private unnamed_addr constant [33 x i8] c"DELETE FROM main.selected_images\00", align 1

; Function Attrs: inlinehint nounwind uwtable
define internal i32 @dt_pthread_mutex_destroy(ptr noundef %0) #1 {
  %2 = alloca ptr, align 8
  %3 = alloca i32, align 4
  store ptr %0, ptr %2, align 8, !tbaa !21
  call void @llvm.lifetime.start.p0(i64 4, ptr %3) #8
  %4 = load ptr, ptr %2, align 8, !tbaa !21
  %5 = getelementptr inbounds nuw %struct.dt_pthread_mutex_t, ptr %4, i32 0, i32 0
  %6 = call i32 @pthread_mutex_destroy(ptr noundef %5) #8
  store i32 %6, ptr %3, align 4, !tbaa !24
  %7 = load i32, ptr %3, align 4, !tbaa !24
  call void @llvm.lifetime.end.p0(i64 4, ptr %3) #8
  ret i32 %7
}

; Function Attrs: inlinehint nounwind uwtable
define internal i32 @dt_pthread_mutex_init(ptr noundef %0, ptr noundef %1) #1 {
  %3 = alloca ptr, align 8
  %4 = alloca ptr, align 8
  store ptr %0, ptr %3, align 8, !tbaa !21
  store ptr %1, ptr %4, align 8, !tbaa !23
  %5 = load ptr, ptr %3, align 8, !tbaa !21
  %6 = getelementptr inbounds nuw %struct.dt_pthread_mutex_t, ptr %5, i32 0, i32 0
  %7 = load ptr, ptr %4, align 8, !tbaa !23
  %8 = call i32 @pthread_mutex_init(ptr noundef %6, ptr noundef %7) #8
  ret i32 %8
}

; Function Attrs: nounwind uwtable
define void @dt_film_cleanup(ptr noundef %0) #0 {
  %2 = alloca ptr, align 8
  store ptr %0, ptr %2, align 8, !tbaa !6
  %3 = load ptr, ptr %2, align 8, !tbaa !6
  %4 = getelementptr inbounds nuw %struct.dt_film_t, ptr %3, i32 0, i32 2
  %5 = call i32 @dt_pthread_mutex_destroy(ptr noundef %4)
  %6 = load ptr, ptr %2, align 8, !tbaa !6
  %7 = getelementptr inbounds nuw %struct.dt_film_t, ptr %6, i32 0, i32 3
  %8 = load ptr, ptr %7, align 8, !tbaa !18
  %9 = icmp ne ptr %8, null
  br i1 %9, label %10, label %16

10:                                               ; preds = %1
  %11 = load ptr, ptr %2, align 8, !tbaa !6
  %12 = getelementptr inbounds nuw %struct.dt_film_t, ptr %11, i32 0, i32 3
  %13 = load ptr, ptr %12, align 8, !tbaa !18
  call void @g_dir_close(ptr noundef %13)
  %14 = load ptr, ptr %2, align 8, !tbaa !6
  %15 = getelementptr inbounds nuw %struct.dt_film_t, ptr %14, i32 0, i32 3
  store ptr null, ptr %15, align 8, !tbaa !18
  br label %16

16:                                               ; preds = %10, %1
  ret void
}

; Function Attrs: nounwind uwtable
define void @dt_film_init(ptr noundef %0) #0 {
  %2 = alloca ptr, align 8
  store ptr %0, ptr %2, align 8, !tbaa !6
  %3 = load ptr, ptr %2, align 8, !tbaa !6
  %4 = getelementptr inbounds nuw %struct.dt_film_t, ptr %3, i32 0, i32 2
  %5 = call i32 @dt_pthread_mutex_init(ptr noundef %4, ptr noundef null)
  %6 = load ptr, ptr %2, align 8, !tbaa !6
  %7 = getelementptr inbounds nuw %struct.dt_film_t, ptr %6, i32 0, i32 4
  store i32 0, ptr %7, align 8, !tbaa !11
  %8 = load ptr, ptr %2, align 8, !tbaa !6
  %9 = getelementptr inbounds nuw %struct.dt_film_t, ptr %8, i32 0, i32 5
  store i32 0, ptr %9, align 4, !tbaa !16
  %10 = load ptr, ptr %2, align 8, !tbaa !6
  %11 = getelementptr inbounds nuw %struct.dt_film_t, ptr %10, i32 0, i32 1
  %12 = getelementptr inbounds [512 x i8], ptr %11, i64 0, i64 0
  store i8 0, ptr %12, align 4, !tbaa !17
  %13 = load ptr, ptr %2, align 8, !tbaa !6
  %14 = getelementptr inbounds nuw %struct.dt_film_t, ptr %13, i32 0, i32 3
  store ptr null, ptr %14, align 8, !tbaa !18
  %15 = load ptr, ptr %2, align 8, !tbaa !6
  %16 = getelementptr inbounds nuw %struct.dt_film_t, ptr %15, i32 0, i32 0
  store i32 0, ptr %16, align 8, !tbaa !19
  %17 = load ptr, ptr %2, align 8, !tbaa !6
  %18 = getelementptr inbounds nuw %struct.dt_film_t, ptr %17, i32 0, i32 6
  store i32 0, ptr %18, align 8, !tbaa !20
  ret void
}

; Function Attrs: nounwind uwtable
define i32 @dt_film_import(ptr noundef %0) #0 {
  %2 = alloca i32, align 4
  %3 = alloca ptr, align 8
  %4 = alloca ptr, align 8
  %5 = alloca ptr, align 8
  %6 = alloca i32, align 4
  %7 = alloca i32, align 4
  %8 = alloca i32, align 4
  store ptr %0, ptr %3, align 8, !tbaa !68
  call void @llvm.lifetime.start.p0(i64 8, ptr %4) #8
  store ptr null, ptr %4, align 8, !tbaa !71
  call void @llvm.lifetime.start.p0(i64 8, ptr %5) #8
  %9 = call noalias ptr @malloc(i64 noundef 584) #9
  store ptr %9, ptr %5, align 8, !tbaa !6
  %10 = load ptr, ptr %5, align 8, !tbaa !6
  call void @dt_film_init(ptr noundef %10)
  %11 = load ptr, ptr %5, align 8, !tbaa !6
  %12 = load ptr, ptr %3, align 8, !tbaa !68
  %13 = call i32 @dt_film_new(ptr noundef %11, ptr noundef %12)
  %14 = load ptr, ptr %5, align 8, !tbaa !6
  %15 = getelementptr inbounds nuw %struct.dt_film_t, ptr %14, i32 0, i32 0
  %16 = load i32, ptr %15, align 8, !tbaa !19
  %17 = icmp sgt i32 %16, 0
  br i1 %17, label %31, label %18

18:                                               ; preds = %1
  %19 = load ptr, ptr %5, align 8, !tbaa !6
  %20 = getelementptr inbounds nuw %struct.dt_film_t, ptr %19, i32 0, i32 0
  %21 = load i32, ptr %20, align 8, !tbaa !19
  %22 = call i32 @dt_film_is_empty(i32 noundef %21)
  %23 = icmp ne i32 %22, 0
  br i1 %23, label %24, label %28

24:                                               ; preds = %18
  %25 = load ptr, ptr %5, align 8, !tbaa !6
  %26 = getelementptr inbounds nuw %struct.dt_film_t, ptr %25, i32 0, i32 0
  %27 = load i32, ptr %26, align 8, !tbaa !19
  call void @dt_film_remove(i32 noundef %27)
  br label %28

28:                                               ; preds = %24, %18
  %29 = load ptr, ptr %5, align 8, !tbaa !6
  call void @dt_film_cleanup(ptr noundef %29)
  %30 = load ptr, ptr %5, align 8, !tbaa !6
  call void @free(ptr noundef %30) #8
  store i32 0, ptr %2, align 4
  store i32 1, ptr %6, align 4
  br label %99

31:                                               ; preds = %1
  call void @llvm.lifetime.start.p0(i64 4, ptr %7) #8
  %32 = load ptr, ptr %5, align 8, !tbaa !6
  %33 = getelementptr inbounds nuw %struct.dt_film_t, ptr %32, i32 0, i32 0
  %34 = load i32, ptr %33, align 8, !tbaa !19
  store i32 %34, ptr %7, align 4, !tbaa !24
  %35 = load ptr, ptr %5, align 8, !tbaa !6
  %36 = getelementptr inbounds nuw %struct.dt_film_t, ptr %35, i32 0, i32 5
  store i32 0, ptr %36, align 4, !tbaa !16
  %37 = load ptr, ptr %5, align 8, !tbaa !6
  %38 = getelementptr inbounds nuw %struct.dt_film_t, ptr %37, i32 0, i32 1
  %39 = getelementptr inbounds [512 x i8], ptr %38, i64 0, i64 0
  %40 = call ptr @g_dir_open(ptr noundef %39, i32 noundef 0, ptr noundef %4)
  %41 = load ptr, ptr %5, align 8, !tbaa !6
  %42 = getelementptr inbounds nuw %struct.dt_film_t, ptr %41, i32 0, i32 3
  store ptr %40, ptr %42, align 8, !tbaa !18
  %43 = load ptr, ptr %4, align 8, !tbaa !71
  %44 = icmp ne ptr %43, null
  br i1 %44, label %45, label %64

45:                                               ; preds = %31
  br label %46

46:                                               ; preds = %45
  %47 = load i32, ptr getelementptr inbounds nuw (%struct.darktable_t, ptr @darktable, i32 0, i32 2), align 8, !tbaa !25
  %48 = xor i32 %47, -1
  %49 = and i32 0, %48
  %50 = icmp ne i32 %49, 0
  br i1 %50, label %58, label %51

51:                                               ; preds = %46
  %52 = load ptr, ptr %5, align 8, !tbaa !6
  %53 = getelementptr inbounds nuw %struct.dt_film_t, ptr %52, i32 0, i32 1
  %54 = getelementptr inbounds [512 x i8], ptr %53, i64 0, i64 0
  %55 = load ptr, ptr %4, align 8, !tbaa !71
  %56 = getelementptr inbounds nuw %struct._GError, ptr %55, i32 0, i32 2
  %57 = load ptr, ptr %56, align 8, !tbaa !73
  call void (ptr, ...) @dt_print_ext(ptr noundef @.str.13, ptr noundef %54, ptr noundef %57)
  br label %58

58:                                               ; preds = %51, %46
  br label %59

59:                                               ; preds = %58
  br label %60

60:                                               ; preds = %59
  %61 = load ptr, ptr %4, align 8, !tbaa !71
  call void @g_error_free(ptr noundef %61)
  %62 = load ptr, ptr %5, align 8, !tbaa !6
  call void @dt_film_cleanup(ptr noundef %62)
  %63 = load ptr, ptr %5, align 8, !tbaa !6
  call void @free(ptr noundef %63) #8
  store i32 0, ptr %2, align 4
  store i32 1, ptr %6, align 4
  br label %98

64:                                               ; preds = %31
  br label %65

65:                                               ; preds = %64
  br label %66

66:                                               ; preds = %65
  %67 = load i32, ptr getelementptr inbounds nuw (%struct.darktable_t, ptr @darktable, i32 0, i32 2), align 8, !tbaa !25
  %68 = and i32 256, %67
  %69 = icmp ne i32 %68, 0
  br i1 %69, label %70, label %76

70:                                               ; preds = %66
  %71 = load i32, ptr getelementptr inbounds nuw (%struct.darktable_t, ptr @darktable, i32 0, i32 2), align 8, !tbaa !25
  %72 = xor i32 %71, -1
  %73 = and i32 0, %72
  %74 = icmp ne i32 %73, 0
  br i1 %74, label %76, label %75

75:                                               ; preds = %70
  call void (ptr, ...) @dt_print_ext(ptr noundef @.str.14, ptr noundef @.str.3, i32 noundef 322, ptr noundef @__FUNCTION__.dt_film_import, ptr noundef @.str.15)
  br label %76

76:                                               ; preds = %75, %70, %66
  br label %77

77:                                               ; preds = %76
  br label %78

78:                                               ; preds = %77
  call void @llvm.lifetime.start.p0(i64 4, ptr %8) #8
  %79 = load ptr, ptr getelementptr inbounds nuw (%struct.darktable_t, ptr @darktable, i32 0, i32 18), align 8, !tbaa !62
  %80 = call ptr @dt_database_get(ptr noundef %79)
  %81 = call i32 @sqlite3_exec(ptr noundef %80, ptr noundef @.str.15, ptr noundef null, ptr noundef null, ptr noundef null)
  store i32 %81, ptr %8, align 4, !tbaa !24
  %82 = load i32, ptr %8, align 4, !tbaa !24
  %83 = icmp ne i32 %82, 0
  br i1 %83, label %84, label %90

84:                                               ; preds = %78
  %85 = load ptr, ptr @stderr, align 8, !tbaa !63
  %86 = load ptr, ptr getelementptr inbounds nuw (%struct.darktable_t, ptr @darktable, i32 0, i32 18), align 8, !tbaa !62
  %87 = call ptr @dt_database_get(ptr noundef %86)
  %88 = call ptr @sqlite3_errmsg(ptr noundef %87)
  %89 = call i32 (ptr, ptr, ...) @fprintf(ptr noundef %85, ptr noundef @.str.5, ptr noundef @.str.3, i32 noundef 322, ptr noundef @__FUNCTION__.dt_film_import, ptr noundef @.str.15, ptr noundef %88) #8
  br label %90

90:                                               ; preds = %84, %78
  call void @llvm.lifetime.end.p0(i64 4, ptr %8) #8
  br label %91

91:                                               ; preds = %90
  br label %92

92:                                               ; preds = %91
  %93 = load ptr, ptr getelementptr inbounds nuw (%struct.darktable_t, ptr @darktable, i32 0, i32 12), align 8, !tbaa !75
  %94 = load ptr, ptr %5, align 8, !tbaa !6
  %95 = call ptr @dt_film_import1_create(ptr noundef %94)
  %96 = call i32 @dt_control_add_job(ptr noundef %93, i32 noundef 2, ptr noundef %95)
  %97 = load i32, ptr %7, align 4, !tbaa !24
  store i32 %97, ptr %2, align 4
  store i32 1, ptr %6, align 4
  br label %98

98:                                               ; preds = %92, %60
  call void @llvm.lifetime.end.p0(i64 4, ptr %7) #8
  br label %99

99:                                               ; preds = %98, %28
  call void @llvm.lifetime.end.p0(i64 8, ptr %5) #8
  call void @llvm.lifetime.end.p0(i64 8, ptr %4) #8
  %100 = load i32, ptr %2, align 4
  ret i32 %100
}