; Function Attrs: nounwind uwtable
define range(i32 0, -2147483648) i32 @dt_film_import(ptr noundef %0) local_unnamed_addr #0 {
  %2 = alloca ptr, align 8
  call void @llvm.lifetime.start.p0(i64 8, ptr nonnull %2) #11
  store ptr null, ptr %2, align 8, !tbaa !61
  %3 = tail call noalias dereferenceable_or_null(584) ptr @malloc(i64 noundef 584) #13
  %4 = getelementptr inbounds nuw i8, ptr %3, i64 520
  %5 = tail call i32 @pthread_mutex_init(ptr noundef nonnull %4, ptr noundef null) #11
  %6 = getelementptr inbounds nuw i8, ptr %3, i64 4
  store i8 0, ptr %6, align 4, !tbaa !6
  %7 = getelementptr inbounds nuw i8, ptr %3, i64 560
  store i32 0, ptr %3, align 8, !tbaa !9
  tail call void @llvm.memset.p0.i64(ptr noundef nonnull align 8 dereferenceable(20) %7, i8 0, i64 20, i1 false)
  %8 = tail call i32 @dt_film_new(ptr noundef nonnull %3, ptr noundef %0)
  %9 = load i32, ptr %3, align 8, !tbaa !9
  %10 = icmp sgt i32 %9, 0
  br i1 %10, label %19, label %11

11:                                               ; preds = %1
  %12 = tail call i32 @dt_film_is_empty(i32 noundef %9)
  %.not = icmp eq i32 %12, 0
  br i1 %.not, label %15, label %13

13:                                               ; preds = %11
  %14 = load i32, ptr %3, align 8, !tbaa !9
  tail call void @dt_film_remove(i32 noundef %14)
  br label %15

15:                                               ; preds = %13, %11
  %16 = tail call i32 @pthread_mutex_destroy(ptr noundef nonnull %4) #11
  %17 = load ptr, ptr %7, align 8, !tbaa !15
  %.not.i = icmp eq ptr %17, null
  br i1 %.not.i, label %dt_film_cleanup.exit, label %18

18:                                               ; preds = %15
  tail call void @g_dir_close(ptr noundef nonnull %17) #11
  br label %dt_film_cleanup.exit

dt_film_cleanup.exit:                             ; preds = %15, %18
  tail call void @free(ptr noundef nonnull %3) #11
  br label %48

19:                                               ; preds = %1
  %20 = getelementptr inbounds nuw i8, ptr %3, i64 572
  store i32 0, ptr %20, align 4, !tbaa !60
  %21 = call ptr @g_dir_open(ptr noundef nonnull %6, i32 noundef 0, ptr noundef nonnull %2) #11
  store ptr %21, ptr %7, align 8, !tbaa !15
  %22 = load ptr, ptr %2, align 8, !tbaa !61
  %.not21 = icmp eq ptr %22, null
  br i1 %.not21, label %30, label %23

23:                                               ; preds = %19
  %24 = getelementptr inbounds nuw i8, ptr %22, i64 8
  %25 = load ptr, ptr %24, align 8, !tbaa !63
  call void (ptr, ...) @dt_print_ext(ptr noundef nonnull @.str.13, ptr noundef nonnull %6, ptr noundef %25) #11
  %26 = load ptr, ptr %2, align 8, !tbaa !61
  call void @g_error_free(ptr noundef %26) #11
  %27 = call i32 @pthread_mutex_destroy(ptr noundef nonnull %4) #11
  %28 = load ptr, ptr %7, align 8, !tbaa !15
  %.not.i24 = icmp eq ptr %28, null
  br i1 %.not.i24, label %dt_film_cleanup.exit25, label %29

29:                                               ; preds = %23
  call void @g_dir_close(ptr noundef nonnull %28) #11
  br label %dt_film_cleanup.exit25

dt_film_cleanup.exit25:                           ; preds = %23, %29
  call void @free(ptr noundef nonnull %3) #11
  br label %48

30:                                               ; preds = %19
  %31 = load i32, ptr getelementptr inbounds nuw (i8, ptr @darktable, i64 8), align 8, !tbaa !16
  %32 = and i32 %31, 256
  %.not22 = icmp eq i32 %32, 0
  br i1 %.not22, label %34, label %33

33:                                               ; preds = %30
  call void (ptr, ...) @dt_print_ext(ptr noundef nonnull @.str.14, ptr noundef nonnull @.str.3, i32 noundef 322, ptr noundef nonnull @__FUNCTION__.dt_film_import, ptr noundef nonnull @.str.15) #11
  br label %34

34:                                               ; preds = %33, %30
  %35 = load ptr, ptr getelementptr inbounds nuw (i8, ptr @darktable, i64 136), align 8, !tbaa !53
  %36 = call ptr @dt_database_get(ptr noundef %35) #11
  %37 = call i32 @sqlite3_exec(ptr noundef %36, ptr noundef nonnull @.str.15, ptr noundef null, ptr noundef null, ptr noundef null) #11
  %.not23 = icmp eq i32 %37, 0
  br i1 %.not23, label %44, label %38

38:                                               ; preds = %34
  %39 = load ptr, ptr @stderr, align 8, !tbaa !54
  %40 = load ptr, ptr getelementptr inbounds nuw (i8, ptr @darktable, i64 136), align 8, !tbaa !53
  %41 = call ptr @dt_database_get(ptr noundef %40) #11
  %42 = call ptr @sqlite3_errmsg(ptr noundef %41) #11
  %43 = call i32 (ptr, ptr, ...) @fprintf(ptr noundef %39, ptr noundef nonnull @.str.5, ptr noundef nonnull @.str.3, i32 noundef 322, ptr noundef nonnull @__FUNCTION__.dt_film_import, ptr noundef nonnull @.str.15, ptr noundef %42) #12
  br label %44

44:                                               ; preds = %38, %34
  %45 = load ptr, ptr getelementptr inbounds nuw (i8, ptr @darktable, i64 88), align 8, !tbaa !65
  %46 = call ptr @dt_film_import1_create(ptr noundef nonnull %3) #11
  %47 = call i32 @dt_control_add_job(ptr noundef %45, i32 noundef 2, ptr noundef %46) #11
  br label %48

48:                                               ; preds = %dt_film_cleanup.exit25, %44, %dt_film_cleanup.exit
  %.0 = phi i32 [ 0, %dt_film_cleanup.exit ], [ 0, %dt_film_cleanup.exit25 ], [ %9, %44 ]
  call void @llvm.lifetime.end.p0(i64 8, ptr nonnull %2) #11
  ret i32 %.0
}